target datalayout = "e-m:e-p270:32:32-p271:32:32-p272:64:64-i64:64-i128:128-f80:128-n8:16:32:64-S128"
target triple = "x86_64-pc-linux-gnu"

%struct._zval_struct = type { %union._zend_value, %union.anon.3, %union.anon.6 }
%union._zend_value = type { i64 }
%union.anon.3 = type { i32 }
%union.anon.6 = type { i32 }
%struct._zend_refcounted_h = type { i32, %union.anon.1 }
%union.anon.1 = type { i32 }
%struct._pdo_stmt_t = type { ptr, ptr, [6 x i8], i16, ptr, ptr, ptr, ptr, i32, i32, %union.anon, ptr, ptr, ptr, i64, ptr, ptr, ptr, %struct._zend_object }
%union.anon = type { %struct.anon.0 }
%struct.anon.0 = type { %struct._zend_fcall_info_cache }
%struct._zend_fcall_info_cache = type { ptr, ptr, ptr, ptr, ptr }
%struct._zend_object = type { %struct._zend_refcounted_h, i32, i32, ptr, ptr, ptr, [1 x %struct._zval_struct] }
%struct.pdo_column_data = type { ptr, i64, i64 }
%struct._zend_string = type { %struct._zend_refcounted_h, i64, i64, [1 x i8] }
%struct._pdo_row_t = type { ptr, %struct._zend_object }

@.str.63 = private unnamed_addr constant [12 x i8] c"queryString\00", align 1

; Function Attrs: alwaysinline nounwind uwtable
define internal zeroext i1 @zend_object_is_lazy(ptr noundef %0) #3 {
  %2 = alloca ptr, align 8
  store ptr %0, ptr %2, align 8, !tbaa !108
  %3 = load ptr, ptr %2, align 8, !tbaa !108
  %4 = getelementptr inbounds nuw %struct._zend_object, ptr %3, i32 0, i32 2
  %5 = load i32, ptr %4, align 4, !tbaa !224
  %6 = and i32 %5, -1073741824
  %7 = icmp ne i32 %6, 0
  ret i1 %7
}

; Function Attrs: alwaysinline nounwind uwtable
define internal zeroext i1 @zend_lazy_object_must_init(ptr noundef %0) #3 {
  %2 = alloca ptr, align 8
  store ptr %0, ptr %2, align 8, !tbaa !108
  %3 = load ptr, ptr %2, align 8, !tbaa !108
  %4 = call zeroext i1 @zend_object_is_lazy(ptr noundef %3)
  ret i1 %4
}

; Function Attrs: alwaysinline nounwind uwtable
define internal zeroext i1 @zend_string_equals_cstr(ptr noundef %0, ptr noundef %1, i64 noundef %2) #3 {
  %4 = alloca ptr, align 8
  %5 = alloca ptr, align 8
  %6 = alloca i64, align 8
  store ptr %0, ptr %4, align 8, !tbaa !39
  store ptr %1, ptr %5, align 8, !tbaa !52
  store i64 %2, ptr %6, align 8, !tbaa !92
  %7 = load ptr, ptr %4, align 8, !tbaa !39
  %8 = getelementptr inbounds nuw %struct._zend_string, ptr %7, i32 0, i32 2
  %9 = load i64, ptr %8, align 8, !tbaa !115
  %10 = load i64, ptr %6, align 8, !tbaa !92
  %11 = icmp eq i64 %9, %10
  br i1 %11, label %12, label %21

12:                                               ; preds = %3
  %13 = load ptr, ptr %4, align 8, !tbaa !39
  %14 = getelementptr inbounds nuw %struct._zend_string, ptr %13, i32 0, i32 3
  %15 = getelementptr inbounds [1 x i8], ptr %14, i64 0, i64 0
  %16 = load ptr, ptr %5, align 8, !tbaa !52
  %17 = load i64, ptr %6, align 8, !tbaa !92
  %18 = call i32 @memcmp(ptr noundef %15, ptr noundef %16, i64 noundef %17) #16
  %19 = icmp ne i32 %18, 0
  %20 = xor i1 %19, true
  br label %21

21:                                               ; preds = %12, %3
  %22 = phi i1 [ false, %3 ], [ %20, %12 ]
  ret i1 %22
}

; Function Attrs: alwaysinline nounwind uwtable
define internal ptr @zend_std_get_properties_ex(ptr noundef %0) #3 {
  %2 = alloca ptr, align 8
  %3 = alloca ptr, align 8
  store ptr %0, ptr %3, align 8, !tbaa !108
  %4 = load ptr, ptr %3, align 8, !tbaa !108
  %5 = call zeroext i1 @zend_lazy_object_must_init(ptr noundef %4)
  %6 = xor i1 %5, true
  %7 = xor i1 %6, true
  %8 = zext i1 %7 to i32
  %9 = sext i32 %8 to i64
  %10 = call i64 @llvm.expect.i64(i64 %9, i64 0)
  %11 = icmp ne i64 %10, 0
  br i1 %11, label %12, label %15

12:                                               ; preds = %1
  %13 = load ptr, ptr %3, align 8, !tbaa !108
  %14 = call ptr @zend_lazy_object_get_properties(ptr noundef %13)
  store ptr %14, ptr %2, align 8
  br label %27

15:                                               ; preds = %1
  %16 = load ptr, ptr %3, align 8, !tbaa !108
  %17 = getelementptr inbounds nuw %struct._zend_object, ptr %16, i32 0, i32 5
  %18 = load ptr, ptr %17, align 8, !tbaa !127
  %19 = icmp ne ptr %18, null
  br i1 %19, label %23, label %20

20:                                               ; preds = %15
  %21 = load ptr, ptr %3, align 8, !tbaa !108
  %22 = call ptr @rebuild_object_properties_internal(ptr noundef %21)
  store ptr %22, ptr %2, align 8
  br label %27

23:                                               ; preds = %15
  %24 = load ptr, ptr %3, align 8, !tbaa !108
  %25 = getelementptr inbounds nuw %struct._zend_object, ptr %24, i32 0, i32 5
  %26 = load ptr, ptr %25, align 8, !tbaa !127
  store ptr %26, ptr %2, align 8
  br label %27

27:                                               ; preds = %23, %20, %12
  %28 = load ptr, ptr %2, align 8
  ret ptr %28
}

; Function Attrs: inlinehint nounwind uwtable
define internal ptr @php_pdo_row_fetch_object(ptr noundef %0) #7 {
  %2 = alloca ptr, align 8
  store ptr %0, ptr %2, align 8, !tbaa !108
  %3 = load ptr, ptr %2, align 8, !tbaa !108
  %4 = getelementptr inbounds i8, ptr %3, i64 -8
  ret ptr %4
}

; Function Attrs: nounwind uwtable
define internal ptr @row_get_properties_for(ptr noundef %0, i32 noundef %1) #0 {
  %3 = alloca ptr, align 8
  %4 = alloca ptr, align 8
  %5 = alloca i32, align 4
  %6 = alloca ptr, align 8
  %7 = alloca ptr, align 8
  %8 = alloca ptr, align 8
  %9 = alloca i32, align 4
  %10 = alloca i32, align 4
  %11 = alloca %struct._zval_struct, align 8
  store ptr %0, ptr %4, align 8, !tbaa !108
  store i32 %1, ptr %5, align 4, !tbaa !26
  call void @llvm.lifetime.start.p0(i64 8, ptr %6) #14
  %12 = load ptr, ptr %4, align 8, !tbaa !108
  %13 = call ptr @php_pdo_row_fetch_object(ptr noundef %12)
  store ptr %13, ptr %6, align 8, !tbaa !197
  call void @llvm.lifetime.start.p0(i64 8, ptr %7) #14
  %14 = load ptr, ptr %6, align 8, !tbaa !197
  %15 = getelementptr inbounds nuw %struct._pdo_row_t, ptr %14, i32 0, i32 0
  %16 = load ptr, ptr %15, align 8, !tbaa !199
  store ptr %16, ptr %7, align 8, !tbaa !4
  call void @llvm.lifetime.start.p0(i64 8, ptr %8) #14
  call void @llvm.lifetime.start.p0(i64 4, ptr %9) #14
  %17 = load ptr, ptr %7, align 8, !tbaa !4
  %18 = icmp ne ptr %17, null
  call void @llvm.assume(i1 %18)
  %19 = load i32, ptr %5, align 4, !tbaa !26
  %20 = icmp ne i32 %19, 0
  br i1 %20, label %21, label %25

21:                                               ; preds = %2
  %22 = load ptr, ptr %4, align 8, !tbaa !108
  %23 = load i32, ptr %5, align 4, !tbaa !26
  %24 = call ptr @zend_std_get_properties_for(ptr noundef %22, i32 noundef %23)
  store ptr %24, ptr %3, align 8
  store i32 1, ptr %10, align 4
  br label %65

25:                                               ; preds = %2
  %26 = load ptr, ptr %7, align 8, !tbaa !4
  %27 = getelementptr inbounds nuw %struct._pdo_stmt_t, ptr %26, i32 0, i32 18
  %28 = call ptr @zend_std_get_properties_ex(ptr noundef %27)
  %29 = call ptr @zend_array_dup(ptr noundef %28)
  store ptr %29, ptr %8, align 8, !tbaa !46
  store i32 0, ptr %9, align 4, !tbaa !26
  br label %30

30:                                               ; preds = %60, %25
  %31 = load i32, ptr %9, align 4, !tbaa !26
  %32 = load ptr, ptr %7, align 8, !tbaa !4
  %33 = getelementptr inbounds nuw %struct._pdo_stmt_t, ptr %32, i32 0, i32 8
  %34 = load i32, ptr %33, align 8, !tbaa !9
  %35 = icmp slt i32 %31, %34
  br i1 %35, label %36, label %63

36:                                               ; preds = %30
  %37 = load ptr, ptr %7, align 8, !tbaa !4
  %38 = getelementptr inbounds nuw %struct._pdo_stmt_t, ptr %37, i32 0, i32 7
  %39 = load ptr, ptr %38, align 8, !tbaa !25
  %40 = load i32, ptr %9, align 4, !tbaa !26
  %41 = sext i32 %40 to i64
  %42 = getelementptr inbounds %struct.pdo_column_data, ptr %39, i64 %41
  %43 = getelementptr inbounds nuw %struct.pdo_column_data, ptr %42, i32 0, i32 0
  %44 = load ptr, ptr %43, align 8, !tbaa !37
  %45 = call zeroext i1 @zend_string_equals_cstr(ptr noundef %44, ptr noundef @.str.63, i64 noundef 11)
  br i1 %45, label %46, label %47

46:                                               ; preds = %36
  br label %60

47:                                               ; preds = %36
  call void @llvm.lifetime.start.p0(i64 16, ptr %11) #14
  %48 = load ptr, ptr %7, align 8, !tbaa !4
  %49 = load i32, ptr %9, align 4, !tbaa !26
  call void @fetch_value(ptr noundef %48, ptr noundef %11, i32 noundef %49, ptr noundef null)
  %50 = load ptr, ptr %8, align 8, !tbaa !46
  %51 = load ptr, ptr %7, align 8, !tbaa !4
  %52 = getelementptr inbounds nuw %struct._pdo_stmt_t, ptr %51, i32 0, i32 7
  %53 = load ptr, ptr %52, align 8, !tbaa !25
  %54 = load i32, ptr %9, align 4, !tbaa !26
  %55 = sext i32 %54 to i64
  %56 = getelementptr inbounds %struct.pdo_column_data, ptr %53, i64 %55
  %57 = getelementptr inbounds nuw %struct.pdo_column_data, ptr %56, i32 0, i32 0
  %58 = load ptr, ptr %57, align 8, !tbaa !37
  %59 = call ptr @zend_hash_update(ptr noundef %50, ptr noundef %58, ptr noundef %11)
  call void @llvm.lifetime.end.p0(i64 16, ptr %11) #14
  br label %60

60:                                               ; preds = %47, %46
  %61 = load i32, ptr %9, align 4, !tbaa !26
  %62 = add nsw i32 %61, 1
  store i32 %62, ptr %9, align 4, !tbaa !26
  br label %30

63:                                               ; preds = %30
  %64 = load ptr, ptr %8, align 8, !tbaa !46
  store ptr %64, ptr %3, align 8
  store i32 1, ptr %10, align 4
  br label %65

65:                                               ; preds = %63, %21
  call void @llvm.lifetime.end.p0(i64 4, ptr %9) #14
  call void @llvm.lifetime.end.p0(i64 8, ptr %8) #14
  call void @llvm.lifetime.end.p0(i64 8, ptr %7) #14
  call void @llvm.lifetime.end.p0(i64 8, ptr %6) #14
  %66 = load ptr, ptr %3, align 8
  ret ptr %66
}