; Function Attrs: nounwind uwtable
define internal ptr @row_get_properties_for(ptr noundef %0, i32 noundef %1) #0 {
  %3 = alloca %struct._zval_struct, align 8
  %4 = getelementptr inbounds i8, ptr %0, i64 -8
  %5 = load ptr, ptr %4, align 8, !tbaa !112, !nonnull !40, !noundef !40
  %.not = icmp eq i32 %1, 0
  br i1 %.not, label %8, label %6

6:                                                ; preds = %2
  %7 = tail call ptr @zend_std_get_properties_for(ptr noundef nonnull %0, i32 noundef %1) #17
  br label %.loopexit

8:                                                ; preds = %2
  %9 = getelementptr inbounds nuw i8, ptr %5, i64 160
  %10 = getelementptr inbounds nuw i8, ptr %5, i64 172
  %11 = load i32, ptr %10, align 4, !tbaa !189
  %12 = icmp ugt i32 %11, 1073741823
  br i1 %12, label %13, label %15, !prof !43

13:                                               ; preds = %8
  %14 = tail call ptr @zend_lazy_object_get_properties(ptr noundef nonnull %9) #17
  br label %zend_std_get_properties_ex.exit

15:                                               ; preds = %8
  %16 = getelementptr inbounds nuw i8, ptr %5, i64 192
  %17 = load ptr, ptr %16, align 8, !tbaa !183
  %.not.i20 = icmp eq ptr %17, null
  br i1 %.not.i20, label %18, label %zend_std_get_properties_ex.exit

18:                                               ; preds = %15
  %19 = tail call ptr @rebuild_object_properties_internal(ptr noundef nonnull %9) #17
  br label %zend_std_get_properties_ex.exit

zend_std_get_properties_ex.exit:                  ; preds = %13, %15, %18
  %.0.i = phi ptr [ %14, %13 ], [ %19, %18 ], [ %17, %15 ]
  %20 = tail call ptr @zend_array_dup(ptr noundef %.0.i) #17
  %21 = getelementptr inbounds nuw i8, ptr %5, i64 56
  %22 = load i32, ptr %21, align 8, !tbaa !4
  %23 = icmp sgt i32 %22, 0
  br i1 %23, label %.lr.ph, label %.loopexit

.lr.ph:                                           ; preds = %zend_std_get_properties_ex.exit
  %24 = getelementptr inbounds nuw i8, ptr %5, i64 48
  br label %25

25:                                               ; preds = %.lr.ph, %39
  %26 = phi i32 [ %22, %.lr.ph ], [ %40, %39 ]
  %indvars.iv = phi i64 [ 0, %.lr.ph ], [ %indvars.iv.next, %39 ]
  %27 = load ptr, ptr %24, align 8, !tbaa !23
  %28 = getelementptr inbounds nuw %struct.pdo_column_data, ptr %27, i64 %indvars.iv
  %29 = load ptr, ptr %28, align 8, !tbaa !35
  %30 = getelementptr inbounds nuw i8, ptr %29, i64 16
  %31 = load i64, ptr %30, align 8, !tbaa !97
  %32 = icmp eq i64 %31, 11
  br i1 %32, label %zend_string_equals_cstr.exit, label %zend_string_equals_cstr.exit.thread

zend_string_equals_cstr.exit:                     ; preds = %25
  %33 = getelementptr inbounds nuw i8, ptr %29, i64 24
  %bcmp.i = call i32 @bcmp(ptr noundef nonnull dereferenceable(11) %33, ptr noundef nonnull dereferenceable(11) @.str.63, i64 11)
  %.not.i = icmp eq i32 %bcmp.i, 0
  br i1 %.not.i, label %39, label %zend_string_equals_cstr.exit.thread

zend_string_equals_cstr.exit.thread:              ; preds = %25, %zend_string_equals_cstr.exit
  call void @llvm.lifetime.start.p0(i64 16, ptr nonnull %3) #17
  %34 = trunc nuw nsw i64 %indvars.iv to i32
  call fastcc void @fetch_value(ptr noundef nonnull %5, ptr noundef nonnull %3, i32 noundef %34, ptr noundef null)
  %35 = load ptr, ptr %24, align 8, !tbaa !23
  %36 = getelementptr inbounds nuw %struct.pdo_column_data, ptr %35, i64 %indvars.iv
  %37 = load ptr, ptr %36, align 8, !tbaa !35
  %38 = call ptr @zend_hash_update(ptr noundef %20, ptr noundef %37, ptr noundef nonnull %3) #17
  call void @llvm.lifetime.end.p0(i64 16, ptr nonnull %3) #17
  %.pre = load i32, ptr %21, align 8, !tbaa !4
  br label %39

39:                                               ; preds = %zend_string_equals_cstr.exit, %zend_string_equals_cstr.exit.thread
  %40 = phi i32 [ %26, %zend_string_equals_cstr.exit ], [ %.pre, %zend_string_equals_cstr.exit.thread ]
  %indvars.iv.next = add nuw nsw i64 %indvars.iv, 1
  %41 = sext i32 %40 to i64
  %42 = icmp slt i64 %indvars.iv.next, %41
  br i1 %42, label %25, label %.loopexit

.loopexit:                                        ; preds = %39, %zend_std_get_properties_ex.exit, %6
  %.018 = phi ptr [ %7, %6 ], [ %20, %zend_std_get_properties_ex.exit ], [ %20, %39 ]
  ret ptr %.018
}